; Function Attrs: nounwind uwtable
define noalias nonnull ptr @l_Lean_Compiler_LCNF_hashParams___boxed(ptr noundef %0) local_unnamed_addr #0 {
  %2 = getelementptr i8, ptr %0, i64 8
  %.val.i = load i64, ptr %2, align 8, !tbaa !12
  %.mask.i = and i64 %.val.i, 9223372036854775807
  %.not.i3 = icmp eq i64 %.mask.i, 0
  br i1 %.not.i3, label %l_Lean_Compiler_LCNF_hashParams.exit, label %lean_dec.exit.i

lean_dec.exit.i:                                  ; preds = %1
  %3 = tail call i64 @l_Array_foldlMUnsafe_fold___at_Lean_Compiler_LCNF_hashParams___spec__1(ptr noundef nonnull readonly %0, i64 noundef 0, i64 noundef %.mask.i, i64 noundef 7)
  br label %l_Lean_Compiler_LCNF_hashParams.exit

l_Lean_Compiler_LCNF_hashParams.exit:             ; preds = %1, %lean_dec.exit.i
  %.0.i = phi i64 [ %3, %lean_dec.exit.i ], [ 7, %1 ]
  %4 = ptrtoint ptr %0 to i64
  %5 = and i64 %4, 1
  %.not = icmp eq i64 %5, 0
  br i1 %.not, label %6, label %lean_dec.exit

6:                                                ; preds = %l_Lean_Compiler_LCNF_hashParams.exit
  %7 = load i32, ptr %0, align 4, !tbaa !8
  %8 = icmp sgt i32 %7, 1
  br i1 %8, label %9, label %11, !prof !11

9:                                                ; preds = %6
  %10 = add nsw i32 %7, -1
  store i32 %10, ptr %0, align 4, !tbaa !8
  br label %lean_dec.exit

11:                                               ; preds = %6
  %.not.i = icmp eq i32 %7, 0
  br i1 %.not.i, label %lean_dec.exit, label %12

12:                                               ; preds = %11
  tail call void @lean_dec_ref_cold(ptr noundef nonnull %0) #3
  br label %lean_dec.exit

lean_dec.exit:                                    ; preds = %12, %11, %9, %l_Lean_Compiler_LCNF_hashParams.exit
  tail call void @lean_inc_heartbeat() #3
  %13 = tail call noalias ptr @mi_malloc_small(i64 noundef 16) #3
  %14 = icmp eq ptr %13, null
  br i1 %14, label %15, label %lean_box_uint64.exit

15:                                               ; preds = %lean_dec.exit
  tail call void @lean_internal_panic_out_of_memory() #4
  unreachable

lean_box_uint64.exit:                             ; preds = %lean_dec.exit
  %16 = getelementptr inbounds nuw i8, ptr %13, i64 4
  store i32 1, ptr %13, align 4, !tbaa !8
  store i32 16, ptr %16, align 4
  %17 = getelementptr inbounds nuw i8, ptr %13, i64 8
  store i64 %.0.i, ptr %17, align 8, !tbaa !12
  ret ptr %13
}